; Function Attrs: mustprogress nounwind uwtable
define hidden void @_ZN13InstanceKlass15set_implementorEPS_(ptr noundef nonnull align 8 dereferenceable(464) %0, ptr noundef %1) local_unnamed_addr #0 align 2 {
  %3 = getelementptr inbounds i8, ptr %0, i64 164
  %4 = load i32, ptr %3, align 4
  %5 = and i32 %4, 512
  %.not.i = icmp eq i32 %5, 0
  br i1 %.not.i, label %20, label %6

6:                                                ; preds = %2
  %7 = getelementptr inbounds i8, ptr %0, i64 464
  %8 = getelementptr inbounds i8, ptr %0, i64 160
  %9 = load i32, ptr %8, align 8
  %10 = sext i32 %9 to i64
  %11 = getelementptr inbounds i64, ptr %7, i64 %10
  %12 = getelementptr inbounds i8, ptr %0, i64 292
  %13 = load i32, ptr %12, align 4
  %14 = sext i32 %13 to i64
  %15 = getelementptr inbounds i64, ptr %11, i64 %14
  %16 = getelementptr inbounds i8, ptr %0, i64 288
  %17 = load i32, ptr %16, align 8
  %18 = zext i32 %17 to i64
  %19 = getelementptr inbounds %class.OopMapBlock, ptr %15, i64 %18
  tail call void asm sideeffect "", "~{memory},~{dirflag},~{fpsr},~{flags}"() #26, !srcloc !9
  store volatile ptr %1, ptr %19, align 8
  br label %20

20:                                               ; preds = %6, %2
  ret void
}